(lp0
S'homo'
p1
aS'flikker'
p2
aS'klootzak'
p3
aS'hitler'
p4
aS'nazi'
p5
aS'zwartjoekel'
p6
aS'bokito'
p7
aS'hoer'
p8
aS'neger'
p9
aS'discriminatie'
p10
aS'rascisme'
p11
aS'a'
p12
aS'n'
p13
ag12
ag12
aS'l'
p14
aS'\r'
p15
aS'\n'
p16
ag12
ag13
aS'u'
p17
aS's'
p18
ag15
ag16
aS'b'
p19
aS'e'
p20
aS'f'
p21
ag15
ag16
aS'c'
p22
ag14
aS'i'
p23
aS't'
p24
aS'o'
p25
aS'r'
p26
ag23
ag18
ag15
ag16
ag22
ag25
ag13
aS'd'
p27
ag25
ag25
aS'm'
p28
ag15
ag16
ag27
ag20
ag19
ag23
ag20
ag14
ag15
ag16
ag27
ag23
ag14
ag27
ag25
ag15
ag16
ag27
ag26
ag25
aS'p'
p29
ag14
ag17
ag14
ag15
ag16
ag20
ag23
aS'k'
p30
ag20
ag14
ag15
ag16
ag20
ag26
ag20
ag22
ag24
ag23
ag20
ag15
ag16
ag21
ag14
ag23
ag30
ag30
ag20
ag26
ag15
ag16
aS'g'
p31
ag25
ag27
aS'v'
p32
ag20
ag26
ag27
ag25
ag28
ag28
ag20
ag15
ag16
aS'h'
p33
ag25
ag20
ag26
ag15
ag16
ag33
ag25
ag28
ag25
ag15
ag16
ag33
ag25
ag13
ag27
ag20
ag14
ag17
ag14
ag15
ag16
ag33
ag25
ag13
ag27
ag20
ag13
ag14
ag17
ag14
ag15
ag16
ag33
ag17
ag21
ag24
ag20
ag26
ag15
ag16
ag30
ag12
ag13
ag30
ag20
ag26
ag33
ag25
ag20
ag26
ag15
ag16
ag30
ag14
ag25
ag25
ag24
ag15
ag16
ag30
ag14
ag25
ag24
ag20
ag13
ag15
ag16
ag30
ag17
ag24
ag15
ag16
ag30
ag17
ag24
aS'w'
p34
ag23
aS'j'
p35
ag21
ag15
ag16
ag30
ag34
ag20
ag14
ag31
ag20
ag20
ag18
ag24
ag15
ag16
ag14
ag20
ag23
ag20
ag26
ag15
ag16
ag14
ag23
ag35
ag20
ag26
ag15
ag16
ag14
ag17
ag14
ag15
ag16
ag28
ag20
ag14
ag12
ag12
ag24
ag18
ag15
ag16
ag28
ag23
ag13
ag30
ag17
ag30
ag20
ag14
ag15
ag16
ag28
ag23
ag18
ag19
ag12
ag30
ag18
ag20
ag14
ag15
ag16
ag28
ag25
ag13
ag31
ag25
ag25
ag14
ag15
ag16
ag13
ag20
ag17
ag30
ag15
ag16
ag13
ag20
ag17
ag30
ag20
ag13
ag15
ag16
ag29
ag20
ag13
ag23
ag18
ag15
ag16
ag29
ag23
ag30
ag15
ag16
ag29
ag23
ag18
ag15
ag16
ag29
ag25
ag25
ag23
ag20
ag26
ag15
ag16
ag26
ag20
ag20
ag24
ag15
ag16
ag26
ag25
ag24
ag30
ag23
ag13
ag27
ag15
ag16
ag18
ag22
ag33
ag20
ag14
ag20
ag15
ag16
ag18
ag14
ag20
ag24
ag15
ag16
ag18
ag24
ag26
ag25
ag13
ag24
ag15
ag16
ag18
ag17
ag30
ag30
ag20
ag14
ag15
ag16
ag24
ag12
ag28
ag29
ag25
ag13
ag15
ag16
ag24
ag20
ag29
ag20
ag14
ag15
ag16
ag24
ag20
ag26
ag23
ag13
ag31
ag15
ag16
ag24
ag23
ag21
ag17
ag18
ag15
ag16
ag24
ag26
ag17
ag24
ag15
ag16
ag32
ag20
ag26
ag30
ag26
ag12
ag22
ag33
ag24
ag15
ag16
aS'z'
p36
ag12
ag12
ag27
ag22
ag20
ag14
ag15
ag16
ag36
ag12
ag13
ag23
ag30
ag15
ag16
a.