(lp0
S'homo'
p1
aS'flikker'
p2
aS'klootzak'
p3
aS'hitler'
p4
aS'nazi'
p5
aS'zwartjoekel'
p6
aS'bokito'
p7
aS'hoer'
p8
aS'a'
p9
aS'n'
p10
ag9
ag9
aS'l'
p11
aS'\r'
p12
aS'\n'
p13
ag9
ag10
aS'u'
p14
aS's'
p15
ag12
ag13
aS'b'
p16
aS'e'
p17
aS'f'
p18
ag12
ag13
aS'c'
p19
ag11
aS'i'
p20
aS't'
p21
aS'o'
p22
aS'r'
p23
ag20
ag15
ag12
ag13
ag19
ag22
ag10
aS'd'
p24
ag22
ag22
aS'm'
p25
ag12
ag13
ag24
ag17
ag16
ag20
ag17
ag11
ag12
ag13
ag24
ag20
ag11
ag24
ag22
ag12
ag13
ag24
ag23
ag22
aS'p'
p26
ag11
ag14
ag11
ag12
ag13
ag17
ag20
aS'k'
p27
ag17
ag11
ag12
ag13
ag17
ag23
ag17
ag19
ag21
ag20
ag17
ag12
ag13
ag18
ag11
ag20
ag27
ag27
ag17
ag23
ag12
ag13
aS'g'
p28
ag22
ag24
aS'v'
p29
ag17
ag23
ag24
ag22
ag25
ag25
ag17
ag12
ag13
aS'h'
p30
ag22
ag17
ag23
ag12
ag13
ag30
ag22
ag25
ag22
ag12
ag13
ag30
ag22
ag10
ag24
ag17
ag11
ag14
ag11
ag12
ag13
ag30
ag22
ag10
ag24
ag17
ag10
ag11
ag14
ag11
ag12
ag13
ag30
ag14
ag18
ag21
ag17
ag23
ag12
ag13
ag27
ag9
ag10
ag27
ag17
ag23
ag30
ag22
ag17
ag23
ag12
ag13
ag27
ag11
ag22
ag22
ag21
ag12
ag13
ag27
ag11
ag22
ag21
ag17
ag10
ag12
ag13
ag27
ag14
ag21
ag12
ag13
ag27
ag14
ag21
aS'w'
p31
ag20
aS'j'
p32
ag18
ag12
ag13
ag27
ag31
ag17
ag11
ag28
ag17
ag17
ag15
ag21
ag12
ag13
ag11
ag17
ag20
ag17
ag23
ag12
ag13
ag11
ag20
ag32
ag17
ag23
ag12
ag13
ag11
ag14
ag11
ag12
ag13
ag25
ag17
ag11
ag9
ag9
ag21
ag15
ag12
ag13
ag25
ag20
ag10
ag27
ag14
ag27
ag17
ag11
ag12
ag13
ag25
ag20
ag15
ag16
ag9
ag27
ag15
ag17
ag11
ag12
ag13
ag25
ag22
ag10
ag28
ag22
ag22
ag11
ag12
ag13
ag10
ag17
ag14
ag27
ag12
ag13
ag10
ag17
ag14
ag27
ag17
ag10
ag12
ag13
ag26
ag17
ag10
ag20
ag15
ag12
ag13
ag26
ag20
ag27
ag12
ag13
ag26
ag20
ag15
ag12
ag13
ag26
ag22
ag22
ag20
ag17
ag23
ag12
ag13
ag23
ag17
ag17
ag21
ag12
ag13
ag23
ag22
ag21
ag27
ag20
ag10
ag24
ag12
ag13
ag15
ag19
ag30
ag17
ag11
ag17
ag12
ag13
ag15
ag11
ag17
ag21
ag12
ag13
ag15
ag21
ag23
ag22
ag10
ag21
ag12
ag13
ag15
ag14
ag27
ag27
ag17
ag11
ag12
ag13
ag21
ag9
ag25
ag26
ag22
ag10
ag12
ag13
ag21
ag17
ag26
ag17
ag11
ag12
ag13
ag21
ag17
ag23
ag20
ag10
ag28
ag12
ag13
ag21
ag20
ag18
ag14
ag15
ag12
ag13
ag21
ag23
ag14
ag21
ag12
ag13
ag29
ag17
ag23
ag27
ag23
ag9
ag19
ag30
ag21
ag12
ag13
aS'z'
p33
ag9
ag9
ag24
ag19
ag17
ag11
ag12
ag13
ag33
ag9
ag10
ag20
ag27
ag12
ag13
a.