(lp0
S'homo'
p1
aS'flikker'
p2
aS'klootzak'
p3
aS'hitler'
p4
aS'nazi'
p5
aS'zwartjoekel'
p6
aS'bokito'
p7
aS'hoer'
p8
aS'neger'
p9
aS'discriminatie'
p10
aS'rascisme'
p11
aS'a'
p12
aS'n'
p13
ag12
ag12
aS'l'
p14
aS'\n'
p15
ag12
ag13
aS'u'
p16
aS's'
p17
ag15
aS'b'
p18
aS'e'
p19
aS'f'
p20
ag15
aS'c'
p21
ag14
aS'i'
p22
aS't'
p23
aS'o'
p24
aS'r'
p25
ag22
ag17
ag15
ag21
ag24
ag13
aS'd'
p26
ag24
ag24
aS'm'
p27
ag15
ag26
ag19
ag18
ag22
ag19
ag14
ag15
ag26
ag22
ag14
ag26
ag24
ag15
ag26
ag25
ag24
aS'p'
p28
ag14
ag16
ag14
ag15
ag19
ag22
aS'k'
p29
ag19
ag14
ag15
ag19
ag25
ag19
ag21
ag23
ag22
ag19
ag15
ag20
ag14
ag22
ag29
ag29
ag19
ag25
ag15
aS'g'
p30
ag24
ag26
aS'v'
p31
ag19
ag25
ag26
ag24
ag27
ag27
ag19
ag15
aS'h'
p32
ag24
ag19
ag25
ag15
ag32
ag24
ag27
ag24
ag15
ag32
ag24
ag13
ag26
ag19
ag14
ag16
ag14
ag15
ag32
ag24
ag13
ag26
ag19
ag13
ag14
ag16
ag14
ag15
ag32
ag16
ag20
ag23
ag19
ag25
ag15
ag29
ag12
ag13
ag29
ag19
ag25
ag32
ag24
ag19
ag25
ag15
ag29
ag14
ag24
ag24
ag23
ag15
ag29
ag14
ag24
ag23
ag19
ag13
ag15
ag29
ag16
ag23
ag15
ag29
ag16
ag23
aS'w'
p33
ag22
aS'j'
p34
ag20
ag15
ag29
ag33
ag19
ag14
ag30
ag19
ag19
ag17
ag23
ag15
ag14
ag19
ag22
ag19
ag25
ag15
ag14
ag22
ag34
ag19
ag25
ag15
ag14
ag16
ag14
ag15
ag27
ag19
ag14
ag12
ag12
ag23
ag17
ag15
ag27
ag22
ag13
ag29
ag16
ag29
ag19
ag14
ag15
ag27
ag22
ag17
ag18
ag12
ag29
ag17
ag19
ag14
ag15
ag27
ag24
ag13
ag30
ag24
ag24
ag14
ag15
ag13
ag19
ag16
ag29
ag15
ag13
ag19
ag16
ag29
ag19
ag13
ag15
ag28
ag19
ag13
ag22
ag17
ag15
ag28
ag22
ag29
ag15
ag28
ag22
ag17
ag15
ag28
ag24
ag24
ag22
ag19
ag25
ag15
ag25
ag19
ag19
ag23
ag15
ag25
ag24
ag23
ag29
ag22
ag13
ag26
ag15
ag17
ag21
ag32
ag19
ag14
ag19
ag15
ag17
ag14
ag19
ag23
ag15
ag17
ag23
ag25
ag24
ag13
ag23
ag15
ag17
ag16
ag29
ag29
ag19
ag14
ag15
ag23
ag12
ag27
ag28
ag24
ag13
ag15
ag23
ag19
ag28
ag19
ag14
ag15
ag23
ag19
ag25
ag22
ag13
ag30
ag15
ag23
ag22
ag20
ag16
ag17
ag15
ag23
ag25
ag16
ag23
ag15
ag31
ag19
ag25
ag29
ag25
ag12
ag21
ag32
ag23
ag15
aS'z'
p35
ag12
ag12
ag26
ag21
ag19
ag14
ag15
ag35
ag12
ag13
ag22
ag29
ag15
a.