(dp0
S'begin'
p1
S'Hallo ik ben de hulp piet en ga je vandaag helpen met het zoeken van een kadotje.  Heb je al zin om Sinterklaas te vieren met je familie? :)'
p2
sS'Nee'
p3
(dp4
g1
S'Ben jij dan degene die altijd opruimt na het Sinterklaasfeestje?'
p5
sg3
(dp6
g1
S'Dat is ook helemaal niet leuk natuurlijk. Ben jij wel goed in het maken van de meest orginele surprises?'
p7
sg3
(dp8
g1
S'Niet de creative ziel van de familie? ;) Heb je je SInterklaas planning wel altijd helemaal op orde?'
p9
sg3
(dp10
S'final'
p11
(lp12
S'Je bent toch niet altijd te laat hoop ik? :) Weet je al wel welk kado je wil kopen?'
p13
aS'default'
p14
assS'Ja'
p15
(dp16
g11
(lp17
S'Structuur is altijd fijn :). Weet je dan ook al welk kado je wil kopen?'
p18
aS'Conciousness'
p19
asssg15
(dp20
g11
(lp21
S'Ik ben benieuwd! Weet je ook al welk cadeautje je zoekt? :)'
p22
aS'Openess'
p23
asssg15
(dp24
g1
S'Als je mijn kadootje niet leuk vindt, zou je het me dan eerlijk vertellen?'
p25
sg3
(dp26
g11
(lp27
S'Je wil me echt geen pijn doen he! Weet je al welk kado je wil kopen?'
p28
aS'Agreeableness'
p29
assg15
(dp30
g1
g7
sg3
(dp31
g1
g9
sg15
(dp32
g11
(lp33
g18
ag19
asssg15
(dp34
g11
(lp35
g22
ag23
asssssg15
(dp36
g1
S'Natuurlijk haha! Ben jij dan ook altijd lekker aan het praten tijdens de viering?'
p37
sg3
(dp38
g1
g5
sg3
(dp39
g1
g7
sg3
(dp40
g1
g9
sg3
(dp41
g11
(lp42
g13
ag14
assg15
(dp43
g11
(lp44
g18
ag19
asssg15
(dp45
g11
(lp46
g22
ag23
asssg15
(dp47
g1
g25
sg3
(dp48
g11
(lp49
g28
ag29
assg15
(dp50
g1
g7
sg3
(dp51
g1
g9
sg15
(dp52
g11
(lp53
g18
ag19
asssg15
(dp54
g11
(lp55
g22
ag23
asssssg15
(dp56
S'distinction'
p57
S'ans'
p58
sg11
(lp59
S'Altijd gezellig, weet je ook al welk cadeau je zoekt?'
p60
aS'Extraversion'
p61
asss.