(lp0
Vall
p1
aVjust
p2
aVbeing
p3
aVover
p4
aVboth
p5
aVthrough
p6
aVyourselves
p7
aVits
p8
aVbefore
p9
aVo
p10
aVhadn
p11
aVherself
p12
aVll
p13
aVhad
p14
aVshould
p15
aVto
p16
aVonly
p17
aVwon
p18
aVunder
p19
aVours
p20
aVhas
p21
aVdo
p22
aVthem
p23
aVhis
p24
aVvery
p25
aVthey
p26
aVnot
p27
aVduring
p28
aVnow
p29
aVhim
p30
aVnor
p31
aVd
p32
aVdid
p33
aVdidn
p34
aVthis
p35
aVshe
p36
aVeach
p37
aVfurther
p38
aVwhere
p39
aVfew
p40
aVbecause
p41
aVdoing
p42
aVsome
p43
aVhasn
p44
aVare
p45
aVour
p46
aVourselves
p47
aVout
p48
aVwhat
p49
aVfor
p50
aVwhile
p51
aVre
p52
aVdoes
p53
aVabove
p54
aVbetween
p55
aVmustn
p56
aVt
p57
aVbe
p58
aVwe
p59
aVwho
p60
aVwere
p61
aVhere
p62
aVshouldn
p63
aVhers
p64
aVby
p65
aVon
p66
aVabout
p67
aVcouldn
p68
aVof
p69
aVagainst
p70
aVs
p71
aVisn
p72
aVor
p73
aVown
p74
aVinto
p75
aVyourself
p76
aVdown
p77
aVmightn
p78
aVwasn
p79
aVyour
p80
aVfrom
p81
aVher
p82
aVtheir
p83
aVaren
p84
aVthere
p85
aVbeen
p86
aVwhom
p87
aVtoo
p88
aVwouldn
p89
aVthemselves
p90
aVweren
p91
aVwas
p92
aVuntil
p93
aVmore
p94
aVhimself
p95
aVthat
p96
aVbut
p97
aVdon
p98
aVwith
p99
aVthan
p100
aVthose
p101
aVhe
p102
aVme
p103
aVmyself
p104
aVma
p105
aVthese
p106
aVup
p107
aVwill
p108
aVbelow
p109
aVain
p110
aVcan
p111
aVtheirs
p112
aVmy
p113
aVand
p114
aVve
p115
aVthen
p116
aVis
p117
aVam
p118
aVit
p119
aVdoesn
p120
aVan
p121
aVas
p122
aVitself
p123
aVat
p124
aVhave
p125
aVin
p126
aVany
p127
aVif
p128
aVagain
p129
aVno
p130
aVwhen
p131
aVsame
p132
aVhow
p133
aVother
p134
aVwhich
p135
aVyou
p136
aVshan
p137
aVneedn
p138
aVhaven
p139
aVafter
p140
aVmost
p141
aVsuch
p142
aVwhy
p143
aVa
p144
aVoff
p145
aVi
p146
aVm
p147
aVyours
p148
aVso
p149
aVy
p150
aVthe
p151
aVhaving
p152
aVonce
p153
a.