(dp0
S'bridge'
p1
(dp2
S'11'
p3
(dp4
g1
S'JU722A5QPP33LKMLEP5F7CJ2EH3DEZRY'
p5
ssS'10'
p6
(dp7
g1
S'JGI6SJ6AFVJVU6LJ32T634MGWRVMPEON'
p8
ssS'12'
p9
(dp10
g1
S'O4BITSQVHFZAI64ITEMWCMV3CQULIQTJ'
p11
ssS'1'
p12
(dp13
g1
S'J6XT5AGLGL5KIXE7IC4XUDNJOGEUF2Q5'
p14
ssS'3'
p15
(dp16
g1
S'NBX3SDK2E24UDEIPIOTUNJFXVSMAJ5ZZ'
p17
ssS'2'
p18
(dp19
g1
S'H54363GTXNWOLPGX4NAAIC45SJG7J2VL'
p20
ssS'5'
p21
(dp22
g1
S'P5RQHZLDEIWAITYY5P4PILWYFHE4VCDL'
p23
ssS'4'
p24
(dp25
g1
S'3BZNDNOBLRFPWZXR2LPUYHE6NHCGR45V'
p26
ssS'7'
p27
(dp28
g1
S'4LH3SMXRIW64PM63MIIS6LP2U2AWEXY5'
p29
ssS'6'
p30
(dp31
g1
S'ZNU3ZP7F5EXPX6CBLQUBUMWJTD57XT7V'
p32
ssS'9'
p33
(dp34
g1
S'7MHFOJP3ZEBOKBF4E7KPSCKF7ZEYPM6Q'
p35
ssS'8'
p36
(dp37
g1
S'QVOQXFPTO3YVO5RNS36KAZSVPUNQ2KF6'
p38
sssS'feedback'
p39
(dp40
g12
(dp41
S'Feedback'
p42
S'Z7V53U4LAVY3JWEU6B32ZYBXK4SK6OEJ'
p43
ssg15
(dp44
g42
S'IJUVMKFS4HEGLIKP25ORZ5UCVVBJGW3Q'
p45
ssg18
(dp46
g42
S'6ZUZHBITRTWR3PEJE26DZE6ZX3HHGGES'
p47
sssS'GiveIdea'
p48
(dp49
S'Ja'
p50
S'GI53VC6SX2EPKWUHYOC2MSEIZMZORHFG'
p51
ssS'Start'
p52
(dp53
S'New'
p54
(dp55
g12
(dp56
S'Get Started'
p57
S'ADLGAY3FVPMAEIKF5DEL3EYEIDIHROHQ'
p58
ssg15
(dp59
g57
S'DURGB5YYD4SLABPAMSPXZ4OJJHG5REZN'
p60
ssg18
(dp61
g57
S'NDVDNO7MLGK6EQK7FR574BBF2VQF6KPY'
p62
ssg24
(dp63
g57
S'GNPNF5VIYW7HAI34MLS3CREFJL7UZVFH'
p64
sssS'Old'
p65
(dp66
S'sintQuestioning'
p67
(dp68
g50
S'DNYI3O6EHFJ376YACLJSDCB3U7H7MXDB'
p69
ssS'oldFashioned'
p70
(dp71
g50
S'Z4NCJN2J2CJGNBVW64WQULIWCUD54HMB'
p72
ssS'recognized'
p73
(dp74
g50
S'IZ5AIDU7KEVIXG6RAWEOY4W6664XGX3R'
p75
ssS'longText'
p76
(dp77
g50
S'YZDGTRUDQU7H2BPRCWFIEVU4KSL42IK4'
p78
ssssS'Connection'
p79
(dp80
g12
(dp81
S'connection'
p82
S'BJNSOGRPKXSMDPF2ENNVKYTABVHR355K'
p83
ssg15
(dp84
g82
S'BMJBF36VFTS4DUQ5FYWJQSELDORNS4UC'
p85
ssg18
(dp86
g82
S'R627JM63JY4EONMAAQ2ANBWYT327TYJC'
p87
ssg24
(dp88
g82
S'OX5JHQ53LMRSC5Y7FENKP6NTELWU6JHH'
p89
sssS'decisions'
p90
(dp91
S'gender'
p92
(dp93
g12
(dp94
S'Gender'
p95
S'BBEESH7AOGULQK6L3TPYYRC4L4Y36LHH'
p96
ssg15
(dp97
g95
S'DJS7HA5DUXDLK42CVX7TUST472LZPOUB'
p98
ssg18
(dp99
g95
S'UQVGOAZSC54YYVUGHURXHY5I4U6A2X3M'
p100
sssS'age'
p101
(dp102
g12
(dp103
S'Age'
p104
S'BQDMM2HIB7YSAXICR7QFULGKXQWJHKXJ'
p105
ssg15
(dp106
g104
S'ZSH2KSPXJBWLDR6YJDG5EHRVXM26ZEUU'
p107
ssg18
(dp108
g104
S'5UTS7JO3NPTOHD52HAWKQOZBUNTFC53R'
p109
sssS'type'
p110
(dp111
g12
(dp112
g110
g12
ssg15
(dp113
g110
g12
ssg18
(dp114
g110
g12
sssS'budget'
p115
(dp116
g12
(dp117
g115
S'IJ7PMHQPAVNK6UU3C3BE3NOVXZ6MMPOJ'
p118
ssg15
(dp119
g115
S'PUL5AUPO3AV2ANCQ7J2S5L4YZEVNYBPN'
p120
ssg18
(dp121
g115
S'TB4QZIZYN4AZQPHYMWDCNFVOR3MJRUGI'
p122
ssss.