(dp0
S'Start'
p1
(dp2
S'New'
p3
(dp4
S'1'
p5
(dp6
S'Get Started'
p7
S'ADLGAY3FVPMAEIKF5DEL3EYEIDIHROHQ'
p8
ssS'3'
p9
(dp10
g7
S'DURGB5YYD4SLABPAMSPXZ4OJJHG5REZN'
p11
ssS'2'
p12
(dp13
g7
S'NDVDNO7MLGK6EQK7FR574BBF2VQF6KPY'
p14
ssS'4'
p15
(dp16
g7
S'GNPNF5VIYW7HAI34MLS3CREFJL7UZVFH'
p17
sssS'Old'
p18
(dp19
S'sintQuestioning'
p20
(dp21
S'Ja'
p22
S'DNYI3O6EHFJ376YACLJSDCB3U7H7MXDB'
p23
ssS'oldFashioned'
p24
(dp25
g22
S'Z4NCJN2J2CJGNBVW64WQULIWCUD54HMB'
p26
ssS'recognized'
p27
(dp28
g22
S'IZ5AIDU7KEVIXG6RAWEOY4W6664XGX3R'
p29
ssS'longText'
p30
(dp31
g22
S'YZDGTRUDQU7H2BPRCWFIEVU4KSL42IK4'
p32
ssssS'Connection'
p33
(dp34
g5
(dp35
S'connection'
p36
S'BJNSOGRPKXSMDPF2ENNVKYTABVHR355K'
p37
ssg9
(dp38
g36
S'BMJBF36VFTS4DUQ5FYWJQSELDORNS4UC'
p39
ssg12
(dp40
g36
S'R627JM63JY4EONMAAQ2ANBWYT327TYJC'
p41
ssg15
(dp42
g36
S'OX5JHQ53LMRSC5Y7FENKP6NTELWU6JHH'
p43
sssS'decisions'
p44
(dp45
S'gender'
p46
(dp47
g5
(dp48
S'Gender'
p49
S'BBEESH7AOGULQK6L3TPYYRC4L4Y36LHH'
p50
ssg9
(dp51
g49
S'DJS7HA5DUXDLK42CVX7TUST472LZPOUB'
p52
ssg12
(dp53
g49
S'UQVGOAZSC54YYVUGHURXHY5I4U6A2X3M'
p54
sssS'age'
p55
(dp56
g5
(dp57
S'Age'
p58
S'BQDMM2HIB7YSAXICR7QFULGKXQWJHKXJ'
p59
ssg9
(dp60
g58
S'ZSH2KSPXJBWLDR6YJDG5EHRVXM26ZEUU'
p61
ssg12
(dp62
g58
S'5UTS7JO3NPTOHD52HAWKQOZBUNTFC53R'
p63
sssS'type'
p64
(dp65
g5
(dp66
g64
g5
ssg9
c__builtin__
set
p67
((lp68
g5
ag64
atp69
Rp70
sg12
(dp71
g64
g5
sssS'budget'
p72
(dp73
g5
(dp74
g72
S'IJ7PMHQPAVNK6UU3C3BE3NOVXZ6MMPOJ'
p75
ssg9
(dp76
g72
S'PUL5AUPO3AV2ANCQ7J2S5L4YZEVNYBPN'
p77
ssg12
(dp78
g72
S'TB4QZIZYN4AZQPHYMWDCNFVOR3MJRUGI'
p79
ssssS'feedback'
p80
(dp81
g5
(dp82
S'Feedback'
p83
S'Z7V53U4LAVY3JWEU6B32ZYBXK4SK6OEJ'
p84
ssg9
(dp85
g83
S'IJUVMKFS4HEGLIKP25ORZ5UCVVBJGW3Q'
p86
ssg12
(dp87
g83
S'6ZUZHBITRTWR3PEJE26DZE6ZX3HHGGES'
p88
sssS'bridge'
p89
(dp90
S'11'
p91
(dp92
g89
S'JU722A5QPP33LKMLEP5F7CJ2EH3DEZRY'
p93
ssS'10'
p94
(dp95
g89
S'JGI6SJ6AFVJVU6LJ32T634MGWRVMPEON'
p96
ssS'12'
p97
(dp98
g89
S'O4BITSQVHFZAI64ITEMWCMV3CQULIQTJ'
p99
ssg5
(dp100
g89
S'J6XT5AGLGL5KIXE7IC4XUDNJOGEUF2Q5'
p101
ssg9
(dp102
g89
S'NBX3SDK2E24UDEIPIOTUNJFXVSMAJ5ZZ'
p103
ssg12
(dp104
g89
S'H54363GTXNWOLPGX4NAAIC45SJG7J2VL'
p105
ssS'5'
p106
(dp107
g89
S'P5RQHZLDEIWAITYY5P4PILWYFHE4VCDL'
p108
ssg15
(dp109
g89
S'3BZNDNOBLRFPWZXR2LPUYHE6NHCGR45V'
p110
ssS'7'
p111
(dp112
g89
S'4LH3SMXRIW64PM63MIIS6LP2U2AWEXY5'
p113
ssS'6'
p114
(dp115
g89
S'ZNU3ZP7F5EXPX6CBLQUBUMWJTD57XT7V'
p116
ssS'9'
p117
(dp118
g89
S'7MHFOJP3ZEBOKBF4E7KPSCKF7ZEYPM6Q'
p119
ssS'8'
p120
(dp121
g89
S'QVOQXFPTO3YVO5RNS36KAZSVPUNQ2KF6'
p122
sss.
