(dp0
S'Start'
p1
(dp2
S'New'
p3
(dp4
S'1'
p5
(dp6
S'Get Started'
p7
S'ADLGAY3FVPMAEIKF5DEL3EYEIDIHROHQ'
p8
ssS'3'
p9
(dp10
g7
S'DURGB5YYD4SLABPAMSPXZ4OJJHG5REZN'
p11
ssS'2'
p12
(dp13
g7
S'NDVDNO7MLGK6EQK7FR574BBF2VQF6KPY'
p14
ssS'4'
p15
(dp16
g7
S'GNPNF5VIYW7HAI34MLS3CREFJL7UZVFH'
p17
sssS'Connection'
p18
(dp19
g5
(dp20
S'Chitchat'
p21
S'ZE3CRW2N2SZJGS54N56RTJLO5655Z3V3'
p22
ssg9
(dp23
g21
S'QJSJJLXNOVGS5I6ATEZHQRXYXSYJ5X54'
p24
ssg12
(dp25
g21
S'A7FBY32J3KSG56HJHMWSEOV3EA472XVV'
p26
ssg15
(dp27
g21
S'JD62VLEJG5Z6OMI7SMJLWG4PSSLERSBI'
p28
sssS'Old'
p29
(dp30
S'sintQuestioning'
p31
(dp32
S'Ja'
p33
S'DNYI3O6EHFJ376YACLJSDCB3U7H7MXDB'
p34
ssS'oldFashioned'
p35
(dp36
g33
S'Z4NCJN2J2CJGNBVW64WQULIWCUD54HMB'
p37
ssS'recognized'
p38
(dp39
g33
S'IZ5AIDU7KEVIXG6RAWEOY4W6664XGX3R'
p40
ssS'longText'
p41
(dp42
g33
S'YZDGTRUDQU7H2BPRCWFIEVU4KSL42IK4'
p43
sssS'bridge'
p44
(dp45
S'11'
p46
(dp47
g44
S'JU722A5QPP33LKMLEP5F7CJ2EH3DEZRY'
p48
ssS'10'
p49
(dp50
g44
S'JGI6SJ6AFVJVU6LJ32T634MGWRVMPEON'
p51
ssS'12'
p52
(dp53
g44
S'O4BITSQVHFZAI64ITEMWCMV3CQULIQTJ'
p54
ssg5
(dp55
g44
S'J6XT5AGLGL5KIXE7IC4XUDNJOGEUF2Q5'
p56
ssg9
(dp57
g44
S'NBX3SDK2E24UDEIPIOTUNJFXVSMAJ5ZZ'
p58
ssg12
(dp59
g44
S'H54363GTXNWOLPGX4NAAIC45SJG7J2VL'
p60
ssS'5'
p61
(dp62
g44
S'P5RQHZLDEIWAITYY5P4PILWYFHE4VCDL'
p63
ssg15
(dp64
g44
S'3BZNDNOBLRFPWZXR2LPUYHE6NHCGR45V'
p65
ssS'7'
p66
(dp67
g44
S'4LH3SMXRIW64PM63MIIS6LP2U2AWEXY5'
p68
ssS'6'
p69
(dp70
g44
S'ZNU3ZP7F5EXPX6CBLQUBUMWJTD57XT7V'
p71
ssS'9'
p72
(dp73
g44
S'7MHFOJP3ZEBOKBF4E7KPSCKF7ZEYPM6Q'
p74
ssS'8'
p75
(dp76
g44
S'QVOQXFPTO3YVO5RNS36KAZSVPUNQ2KF6'
p77
ssssS'decisions'
p78
(dp79
S'gender'
p80
(dp81
g5
(dp82
S'Gender'
p83
S'BBEESH7AOGULQK6L3TPYYRC4L4Y36LHH'
p84
ssg9
(dp85
g83
S'DJS7HA5DUXDLK42CVX7TUST472LZPOUB'
p86
ssg12
(dp87
g83
S'UQVGOAZSC54YYVUGHURXHY5I4U6A2X3M'
p88
sssS'age'
p89
(dp90
g5
(dp91
S'Age'
p92
S'BQDMM2HIB7YSAXICR7QFULGKXQWJHKXJ'
p93
ssg9
(dp94
g92
S'ZSH2KSPXJBWLDR6YJDG5EHRVXM26ZEUU'
p95
ssg12
(dp96
g92
S'5UTS7JO3NPTOHD52HAWKQOZBUNTFC53R'
p97
sssS'budget'
p98
(dp99
g5
(dp100
g98
S'IJ7PMHQPAVNK6UU3C3BE3NOVXZ6MMPOJ'
p101
ssg9
(dp102
g98
S'PUL5AUPO3AV2ANCQ7J2S5L4YZEVNYBPN'
p103
ssg12
(dp104
g98
S'TB4QZIZYN4AZQPHYMWDCNFVOR3MJRUGI'
p105
ssssS'feedback'
p106
(dp107
g5
(dp108
S'Feedback'
p109
S'Z7V53U4LAVY3JWEU6B32ZYBXK4SK6OEJ'
p110
ssg9
(dp111
g109
S'IJUVMKFS4HEGLIKP25ORZ5UCVVBJGW3Q'
p112
ssg12
(dp113
g109
S'6ZUZHBITRTWR3PEJE26DZE6ZX3HHGGES'
p114
sss.