(dp0
S'Start'
p1
(dp2
S'New'
p3
(dp4
S'1'
p5
(dp6
S'Get Started'
p7
S'ADLGAY3FVPMAEIKF5DEL3EYEIDIHROHQ'
p8
ssS'3'
p9
(dp10
g7
S'DURGB5YYD4SLABPAMSPXZ4OJJHG5REZN'
p11
ssS'2'
p12
(dp13
g7
S'NDVDNO7MLGK6EQK7FR574BBF2VQF6KPY'
p14
ssS'4'
p15
(dp16
g7
S'GNPNF5VIYW7HAI34MLS3CREFJL7UZVFH'
p17
sssS'Old'
p18
(dp19
S'sintQuestioning'
p20
(dp21
S'Ja'
p22
S'DNYI3O6EHFJ376YACLJSDCB3U7H7MXDB'
p23
ssS'oldFashioned'
p24
(dp25
g22
S'Z4NCJN2J2CJGNBVW64WQULIWCUD54HMB'
p26
ssS'recognized'
p27
(dp28
g22
S'IZ5AIDU7KEVIXG6RAWEOY4W6664XGX3R'
p29
ssS'longText'
p30
(dp31
g22
S'YZDGTRUDQU7H2BPRCWFIEVU4KSL42IK4'
p32
ssssS'Connection'
p33
(dp34
g5
(dp35
S'Chitchat'
p36
S'ZE3CRW2N2SZJGS54N56RTJLO5655Z3V3'
p37
ssg9
(dp38
g36
S'QJSJJLXNOVGS5I6ATEZHQRXYXSYJ5X54'
p39
ssg12
(dp40
g36
S'A7FBY32J3KSG56HJHMWSEOV3EA472XVV'
p41
ssg15
(dp42
g36
S'JD62VLEJG5Z6OMI7SMJLWG4PSSLERSBI'
p43
sssS'decisions'
p44
(dp45
S'gender'
p46
(dp47
g5
(dp48
S'Gender'
p49
S'BBEESH7AOGULQK6L3TPYYRC4L4Y36LHH'
p50
ssg9
(dp51
g49
S'DJS7HA5DUXDLK42CVX7TUST472LZPOUB'
p52
ssg12
(dp53
g49
S'UQVGOAZSC54YYVUGHURXHY5I4U6A2X3M'
p54
sssS'age'
p55
(dp56
g5
(dp57
S'Age'
p58
S'BQDMM2HIB7YSAXICR7QFULGKXQWJHKXJ'
p59
ssg9
(dp60
g58
S'ZSH2KSPXJBWLDR6YJDG5EHRVXM26ZEUU'
p61
ssg12
(dp62
g58
S'5UTS7JO3NPTOHD52HAWKQOZBUNTFC53R'
p63
sssS'budget'
p64
(dp65
g5
(dp66
g64
S'IJ7PMHQPAVNK6UU3C3BE3NOVXZ6MMPOJ'
p67
ssg9
(dp68
g64
S'PUL5AUPO3AV2ANCQ7J2S5L4YZEVNYBPN'
p69
ssg12
(dp70
g64
S'TB4QZIZYN4AZQPHYMWDCNFVOR3MJRUGI'
p71
ssssS'feedback'
p72
(dp73
g5
(dp74
S'Feedback'
p75
S'Z7V53U4LAVY3JWEU6B32ZYBXK4SK6OEJ'
p76
ssg9
(dp77
g75
S'IJUVMKFS4HEGLIKP25ORZ5UCVVBJGW3Q'
p78
ssg12
(dp79
g75
S'6ZUZHBITRTWR3PEJE26DZE6ZX3HHGGES'
p80
sssS'bridge'
p81
(dp82
S'11'
p83
(dp84
g81
S'JU722A5QPP33LKMLEP5F7CJ2EH3DEZRY'
p85
ssS'10'
p86
(dp87
g81
S'JGI6SJ6AFVJVU6LJ32T634MGWRVMPEON'
p88
ssS'12'
p89
(dp90
g81
S'O4BITSQVHFZAI64ITEMWCMV3CQULIQTJ'
p91
ssg5
(dp92
g81
S'J6XT5AGLGL5KIXE7IC4XUDNJOGEUF2Q5'
p93
ssg9
(dp94
g81
S'NBX3SDK2E24UDEIPIOTUNJFXVSMAJ5ZZ'
p95
ssg12
(dp96
g81
S'H54363GTXNWOLPGX4NAAIC45SJG7J2VL'
p97
ssS'5'
p98
(dp99
g81
S'P5RQHZLDEIWAITYY5P4PILWYFHE4VCDL'
p100
ssg15
(dp101
g81
S'3BZNDNOBLRFPWZXR2LPUYHE6NHCGR45V'
p102
ssS'7'
p103
(dp104
g81
S'4LH3SMXRIW64PM63MIIS6LP2U2AWEXY5'
p105
ssS'6'
p106
(dp107
g81
S'ZNU3ZP7F5EXPX6CBLQUBUMWJTD57XT7V'
p108
ssS'9'
p109
(dp110
g81
S'7MHFOJP3ZEBOKBF4E7KPSCKF7ZEYPM6Q'
p111
ssS'8'
p112
(dp113
g81
S'QVOQXFPTO3YVO5RNS36KAZSVPUNQ2KF6'
p114
sss.